; Function Attrs: mustprogress nofree norecurse nosync nounwind willreturn memory(argmem: readwrite) uwtable
define internal noundef zeroext i1 @"_ZNSt17_Function_handlerIFvSt6vectorIcSaIcEEEZZN13cmSystemTools11WaitForLineEP9uv_loop_sP11uv_stream_sS8_RNSt7__cxx1112basic_stringIcSt11char_traitsIcES1_EENSt6chrono8durationIdSt5ratioILl1ELl1EEEERS2_SK_ENK3$_0clES8_RZNS4_11WaitForLineES6_S8_S8_SE_SJ_SK_SK_E8ReadDataEUlS2_E_E10_M_managerERSt9_Any_dataRKSQ_St18_Manager_operation"(ptr noundef nonnull writeonly align 8 captures(none) dereferenceable(16) %0, ptr noundef nonnull align 8 dereferenceable(16) %1, i32 noundef %2) #29 align 2 personality ptr @__gxx_personality_v0 {
  switch i32 %2, label %"_ZNSt14_Function_base13_Base_managerIZZN13cmSystemTools11WaitForLineEP9uv_loop_sP11uv_stream_sS5_RNSt7__cxx1112basic_stringIcSt11char_traitsIcESaIcEEENSt6chrono8durationIdSt5ratioILl1ELl1EEEERSt6vectorIcSA_ESK_ENK3$_0clES5_RZNS1_11WaitForLineES3_S5_S5_SC_SH_SK_SK_E8ReadDataEUlSJ_E_E10_M_managerERSt9_Any_dataRKSQ_St18_Manager_operation.exit" [
    i32 0, label %4
    i32 1, label %5
    i32 2, label %6
  ]

4:                                                ; preds = %3
  store ptr @"_ZTIZZN13cmSystemTools11WaitForLineEP9uv_loop_sP11uv_stream_sS3_RNSt7__cxx1112basic_stringIcSt11char_traitsIcESaIcEEENSt6chrono8durationIdSt5ratioILl1ELl1EEEERSt6vectorIcS8_ESI_ENK3$_0clES3_RZNS_11WaitForLineES1_S3_S3_SA_SF_SI_SI_E8ReadDataEUlSH_E_", ptr %0, align 8, !tbaa !790
  br label %"_ZNSt14_Function_base13_Base_managerIZZN13cmSystemTools11WaitForLineEP9uv_loop_sP11uv_stream_sS5_RNSt7__cxx1112basic_stringIcSt11char_traitsIcESaIcEEENSt6chrono8durationIdSt5ratioILl1ELl1EEEERSt6vectorIcSA_ESK_ENK3$_0clES5_RZNS1_11WaitForLineES3_S5_S5_SC_SH_SK_SK_E8ReadDataEUlSJ_E_E10_M_managerERSt9_Any_dataRKSQ_St18_Manager_operation.exit"

5:                                                ; preds = %3
  store ptr %1, ptr %0, align 8, !tbaa !63
  br label %"_ZNSt14_Function_base13_Base_managerIZZN13cmSystemTools11WaitForLineEP9uv_loop_sP11uv_stream_sS5_RNSt7__cxx1112basic_stringIcSt11char_traitsIcESaIcEEENSt6chrono8durationIdSt5ratioILl1ELl1EEEERSt6vectorIcSA_ESK_ENK3$_0clES5_RZNS1_11WaitForLineES3_S5_S5_SC_SH_SK_SK_E8ReadDataEUlSJ_E_E10_M_managerERSt9_Any_dataRKSQ_St18_Manager_operation.exit"

6:                                                ; preds = %3
  %.val.i = load i64, ptr %1, align 8, !tbaa !812
  store i64 %.val.i, ptr %0, align 8, !tbaa !812
  br label %"_ZNSt14_Function_base13_Base_managerIZZN13cmSystemTools11WaitForLineEP9uv_loop_sP11uv_stream_sS5_RNSt7__cxx1112basic_stringIcSt11char_traitsIcESaIcEEENSt6chrono8durationIdSt5ratioILl1ELl1EEEERSt6vectorIcSA_ESK_ENK3$_0clES5_RZNS1_11WaitForLineES3_S5_S5_SC_SH_SK_SK_E8ReadDataEUlSJ_E_E10_M_managerERSt9_Any_dataRKSQ_St18_Manager_operation.exit"

"_ZNSt14_Function_base13_Base_managerIZZN13cmSystemTools11WaitForLineEP9uv_loop_sP11uv_stream_sS5_RNSt7__cxx1112basic_stringIcSt11char_traitsIcESaIcEEENSt6chrono8durationIdSt5ratioILl1ELl1EEEERSt6vectorIcSA_ESK_ENK3$_0clES5_RZNS1_11WaitForLineES3_S5_S5_SC_SH_SK_SK_E8ReadDataEUlSJ_E_E10_M_managerERSt9_Any_dataRKSQ_St18_Manager_operation.exit": ; preds = %3, %6, %5, %4
  ret i1 false
}